target datalayout = "e-m:e-p270:32:32-p271:32:32-p272:64:64-i64:64-i128:128-f80:128-n8:16:32:64-S128"
target triple = "x86_64-pc-linux-gnu"

%struct.AVFormatContext = type { ptr, ptr, ptr, ptr, ptr, i32, i32, ptr, i32, ptr, i32, ptr, ptr, i64, i64, i64, i32, i32, i32, i64, i64, ptr, i32, i32, ptr, i32, i32, i32, i32, ptr, i64, i32, i32, %struct.AVIOInterruptCB, i32, i32, i32, i32, i64, i32, i32, i32, i32, i32, i32, i32, i32, i32, i32, i32, i32, i64, i32, i32, i32, i32, i32, ptr, ptr, ptr, ptr, i32, ptr, ptr, ptr, ptr, i32, ptr, ptr, i64, ptr, ptr, ptr, i64 }
%struct.AVIOInterruptCB = type { ptr, ptr }
%struct.OMAContext = type { i64, i32, i16, i16, i16, i16, i32, [24 x i8], [24 x i8], [8 x i8], [8 x i8], [8 x i8], [8 x i8], [8 x i8], ptr, ptr }

; Function Attrs: nounwind uwtable
define internal i32 @rprobe(ptr noundef %0, ptr noundef %1, i32 noundef %2, ptr noundef %3) #0 {
  %5 = alloca i32, align 4
  %6 = alloca ptr, align 8
  %7 = alloca ptr, align 8
  %8 = alloca i32, align 4
  %9 = alloca ptr, align 8
  %10 = alloca ptr, align 8
  %11 = alloca i32, align 4
  %12 = alloca ptr, align 8
  %13 = alloca i32, align 4
  store ptr %0, ptr %6, align 8, !tbaa !17
  store ptr %1, ptr %7, align 8, !tbaa !13
  store i32 %2, ptr %8, align 4, !tbaa !14
  store ptr %3, ptr %9, align 8, !tbaa !13
  call void @llvm.lifetime.start.p0(i64 8, ptr %10) #9
  %14 = load ptr, ptr %6, align 8, !tbaa !17
  %15 = getelementptr inbounds nuw %struct.AVFormatContext, ptr %14, i32 0, i32 3
  %16 = load ptr, ptr %15, align 8, !tbaa !19
  store ptr %16, ptr %10, align 8, !tbaa !34
  call void @llvm.lifetime.start.p0(i64 4, ptr %11) #9
  call void @llvm.lifetime.start.p0(i64 8, ptr %12) #9
  %17 = load ptr, ptr %7, align 8, !tbaa !13
  %18 = icmp ne ptr %17, null
  br i1 %18, label %19, label %43

19:                                               ; preds = %4
  %20 = load ptr, ptr %9, align 8, !tbaa !13
  %21 = icmp ne ptr %20, null
  br i1 %21, label %22, label %43

22:                                               ; preds = %19
  %23 = load i32, ptr %8, align 4, !tbaa !14
  %24 = load ptr, ptr %10, align 8, !tbaa !34
  %25 = getelementptr inbounds nuw %struct.OMAContext, ptr %24, i32 0, i32 2
  %26 = load i16, ptr %25, align 4, !tbaa !98
  %27 = zext i16 %26 to i32
  %28 = add nsw i32 16, %27
  %29 = load ptr, ptr %10, align 8, !tbaa !34
  %30 = getelementptr inbounds nuw %struct.OMAContext, ptr %29, i32 0, i32 3
  %31 = load i16, ptr %30, align 2, !tbaa !99
  %32 = zext i16 %31 to i32
  %33 = add nsw i32 %28, %32
  %34 = load ptr, ptr %10, align 8, !tbaa !34
  %35 = getelementptr inbounds nuw %struct.OMAContext, ptr %34, i32 0, i32 4
  %36 = load i16, ptr %35, align 8, !tbaa !100
  %37 = zext i16 %36 to i32
  %38 = add nsw i32 %33, %37
  %39 = icmp ult i32 %23, %38
  br i1 %39, label %43, label %40

40:                                               ; preds = %22
  %41 = load i32, ptr %8, align 4, !tbaa !14
  %42 = icmp ult i32 %41, 49
  br i1 %42, label %43, label %44

43:                                               ; preds = %40, %22, %19, %4
  store i32 -1, ptr %5, align 4
  store i32 1, ptr %13, align 4
  br label %113

44:                                               ; preds = %40
  %45 = call ptr @av_des_alloc()
  store ptr %45, ptr %12, align 8, !tbaa !116
  %46 = load ptr, ptr %12, align 8, !tbaa !116
  %47 = icmp ne ptr %46, null
  br i1 %47, label %49, label %48

48:                                               ; preds = %44
  store i32 -12, ptr %5, align 4
  store i32 1, ptr %13, align 4
  br label %113

49:                                               ; preds = %44
  %50 = load ptr, ptr %12, align 8, !tbaa !116
  %51 = load ptr, ptr %9, align 8, !tbaa !13
  %52 = call i32 @av_des_init(ptr noundef %50, ptr noundef %51, i32 noundef 192, i32 noundef 1)
  %53 = load ptr, ptr %12, align 8, !tbaa !116
  %54 = load ptr, ptr %10, align 8, !tbaa !34
  %55 = getelementptr inbounds nuw %struct.OMAContext, ptr %54, i32 0, i32 9
  %56 = getelementptr inbounds [8 x i8], ptr %55, i64 0, i64 0
  %57 = load ptr, ptr %7, align 8, !tbaa !13
  %58 = getelementptr inbounds i8, ptr %57, i64 48
  call void @av_des_crypt(ptr noundef %53, ptr noundef %56, ptr noundef %58, i32 noundef 1, ptr noundef null, i32 noundef 1)
  %59 = load ptr, ptr %12, align 8, !tbaa !116
  %60 = load ptr, ptr %10, align 8, !tbaa !34
  %61 = getelementptr inbounds nuw %struct.OMAContext, ptr %60, i32 0, i32 9
  %62 = getelementptr inbounds [8 x i8], ptr %61, i64 0, i64 0
  %63 = call i32 @av_des_init(ptr noundef %59, ptr noundef %62, i32 noundef 64, i32 noundef 0)
  %64 = load ptr, ptr %12, align 8, !tbaa !116
  %65 = load ptr, ptr %10, align 8, !tbaa !34
  %66 = getelementptr inbounds nuw %struct.OMAContext, ptr %65, i32 0, i32 10
  %67 = getelementptr inbounds [8 x i8], ptr %66, i64 0, i64 0
  call void @av_des_crypt(ptr noundef %64, ptr noundef %67, ptr noundef null, i32 noundef 1, ptr noundef null, i32 noundef 0)
  %68 = load ptr, ptr %10, align 8, !tbaa !34
  %69 = getelementptr inbounds nuw %struct.OMAContext, ptr %68, i32 0, i32 2
  %70 = load i16, ptr %69, align 4, !tbaa !98
  %71 = zext i16 %70 to i32
  %72 = add nsw i32 16, %71
  %73 = load ptr, ptr %10, align 8, !tbaa !34
  %74 = getelementptr inbounds nuw %struct.OMAContext, ptr %73, i32 0, i32 3
  %75 = load i16, ptr %74, align 2, !tbaa !99
  %76 = zext i16 %75 to i32
  %77 = add nsw i32 %72, %76
  store i32 %77, ptr %11, align 4, !tbaa !14
  %78 = load ptr, ptr %12, align 8, !tbaa !116
  %79 = load ptr, ptr %10, align 8, !tbaa !34
  %80 = getelementptr inbounds nuw %struct.OMAContext, ptr %79, i32 0, i32 10
  %81 = getelementptr inbounds [8 x i8], ptr %80, i64 0, i64 0
  %82 = call i32 @av_des_init(ptr noundef %78, ptr noundef %81, i32 noundef 64, i32 noundef 0)
  %83 = load ptr, ptr %12, align 8, !tbaa !116
  %84 = load ptr, ptr %10, align 8, !tbaa !34
  %85 = getelementptr inbounds nuw %struct.OMAContext, ptr %84, i32 0, i32 11
  %86 = getelementptr inbounds [8 x i8], ptr %85, i64 0, i64 0
  %87 = load ptr, ptr %7, align 8, !tbaa !13
  %88 = load i32, ptr %11, align 4, !tbaa !14
  %89 = zext i32 %88 to i64
  %90 = getelementptr inbounds nuw i8, ptr %87, i64 %89
  %91 = load ptr, ptr %10, align 8, !tbaa !34
  %92 = getelementptr inbounds nuw %struct.OMAContext, ptr %91, i32 0, i32 4
  %93 = load i16, ptr %92, align 8, !tbaa !100
  %94 = zext i16 %93 to i32
  %95 = ashr i32 %94, 3
  call void @av_des_mac(ptr noundef %83, ptr noundef %86, ptr noundef %90, i32 noundef %95)
  %96 = load ptr, ptr %10, align 8, !tbaa !34
  %97 = getelementptr inbounds nuw %struct.OMAContext, ptr %96, i32 0, i32 4
  %98 = load i16, ptr %97, align 8, !tbaa !100
  %99 = zext i16 %98 to i32
  %100 = load i32, ptr %11, align 4, !tbaa !14
  %101 = add i32 %100, %99
  store i32 %101, ptr %11, align 4, !tbaa !14
  %102 = load ptr, ptr %12, align 8, !tbaa !116
  call void @av_free(ptr noundef %102)
  %103 = load ptr, ptr %7, align 8, !tbaa !13
  %104 = load i32, ptr %11, align 4, !tbaa !14
  %105 = zext i32 %104 to i64
  %106 = getelementptr inbounds nuw i8, ptr %103, i64 %105
  %107 = load ptr, ptr %10, align 8, !tbaa !34
  %108 = getelementptr inbounds nuw %struct.OMAContext, ptr %107, i32 0, i32 11
  %109 = getelementptr inbounds [8 x i8], ptr %108, i64 0, i64 0
  %110 = call i32 @memcmp(ptr noundef %106, ptr noundef %109, i64 noundef 8) #10
  %111 = icmp ne i32 %110, 0
  %112 = select i1 %111, i32 -1, i32 0
  store i32 %112, ptr %5, align 4
  store i32 1, ptr %13, align 4
  br label %113

113:                                              ; preds = %49, %48, %43
  call void @llvm.lifetime.end.p0(i64 8, ptr %12) #9
  call void @llvm.lifetime.end.p0(i64 4, ptr %11) #9
  call void @llvm.lifetime.end.p0(i64 8, ptr %10) #9
  %114 = load i32, ptr %5, align 4
  ret i32 %114
}