; Function Attrs: nounwind uwtable
define internal fastcc range(i32 -12, 1) i32 @rprobe(ptr %.24.val, ptr noundef %0, i32 noundef %1, ptr noundef %2) unnamed_addr #0 {
  %4 = icmp ne ptr %0, null
  %5 = icmp ne ptr %2, null
  %or.cond = and i1 %4, %5
  br i1 %or.cond, label %6, label %48

6:                                                ; preds = %3
  %7 = getelementptr inbounds nuw i8, ptr %.24.val, i64 12
  %8 = load i16, ptr %7, align 4, !tbaa !45
  %9 = zext i16 %8 to i32
  %10 = add nuw nsw i32 %9, 16
  %11 = getelementptr inbounds nuw i8, ptr %.24.val, i64 14
  %12 = load i16, ptr %11, align 2, !tbaa !46
  %13 = zext i16 %12 to i32
  %14 = add nuw nsw i32 %10, %13
  %15 = getelementptr inbounds nuw i8, ptr %.24.val, i64 16
  %16 = load i16, ptr %15, align 8, !tbaa !47
  %17 = zext i16 %16 to i32
  %18 = add nuw nsw i32 %14, %17
  %19 = icmp ult i32 %1, %18
  %20 = icmp ult i32 %1, 49
  %or.cond3 = or i1 %20, %19
  br i1 %or.cond3, label %48, label %21

21:                                               ; preds = %6
  %22 = tail call ptr @av_des_alloc() #9
  %.not = icmp eq ptr %22, null
  br i1 %.not, label %48, label %23

23:                                               ; preds = %21
  %24 = tail call i32 @av_des_init(ptr noundef nonnull %22, ptr noundef nonnull %2, i32 noundef 192, i32 noundef 1) #9
  %25 = getelementptr inbounds nuw i8, ptr %.24.val, i64 72
  %26 = getelementptr inbounds nuw i8, ptr %0, i64 48
  tail call void @av_des_crypt(ptr noundef nonnull %22, ptr noundef nonnull %25, ptr noundef nonnull %26, i32 noundef 1, ptr noundef null, i32 noundef 1) #9
  %27 = tail call i32 @av_des_init(ptr noundef nonnull %22, ptr noundef nonnull %25, i32 noundef 64, i32 noundef 0) #9
  %28 = getelementptr inbounds nuw i8, ptr %.24.val, i64 80
  tail call void @av_des_crypt(ptr noundef nonnull %22, ptr noundef nonnull %28, ptr noundef null, i32 noundef 1, ptr noundef null, i32 noundef 0) #9
  %29 = load i16, ptr %7, align 4, !tbaa !45
  %30 = zext i16 %29 to i32
  %31 = add nuw nsw i32 %30, 16
  %32 = load i16, ptr %11, align 2, !tbaa !46
  %33 = zext i16 %32 to i32
  %34 = add nuw nsw i32 %31, %33
  %35 = tail call i32 @av_des_init(ptr noundef nonnull %22, ptr noundef nonnull %28, i32 noundef 64, i32 noundef 0) #9
  %36 = getelementptr inbounds nuw i8, ptr %.24.val, i64 88
  %37 = zext nneg i32 %34 to i64
  %38 = getelementptr inbounds nuw i8, ptr %0, i64 %37
  %39 = load i16, ptr %15, align 8, !tbaa !47
  %40 = lshr i16 %39, 3
  %41 = zext nneg i16 %40 to i32
  tail call void @av_des_mac(ptr noundef nonnull %22, ptr noundef nonnull %36, ptr noundef nonnull %38, i32 noundef %41) #9
  %42 = load i16, ptr %15, align 8, !tbaa !47
  %43 = zext i16 %42 to i32
  %44 = add nuw nsw i32 %34, %43
  tail call void @av_free(ptr noundef nonnull %22) #9
  %45 = zext nneg i32 %44 to i64
  %46 = getelementptr inbounds nuw i8, ptr %0, i64 %45
  %bcmp = tail call i32 @bcmp(ptr noundef nonnull dereferenceable(8) %46, ptr noundef nonnull dereferenceable(8) %36, i64 8)
  %.not39 = icmp ne i32 %bcmp, 0
  %47 = sext i1 %.not39 to i32
  br label %48

48:                                               ; preds = %21, %3, %6, %23
  %.0 = phi i32 [ %47, %23 ], [ -1, %6 ], [ -1, %3 ], [ -12, %21 ]
  ret i32 %.0
}